; ModuleID = 'source-C-CXX/52/285.c'
source_filename = "source-C-CXX/52/285.c"
target datalayout = "e-m:e-p270:32:32-p271:32:32-p272:64:64-i64:64-f80:128-n8:16:32:64-S128"
target triple = "x86_64-pc-linux-gnu"

@.str = private unnamed_addr constant [4 x i8] c"%d\0A\00", align 1
@.str.1 = private unnamed_addr constant [3 x i8] c"%d\00", align 1
@.str.2 = private unnamed_addr constant [4 x i8] c",%d\00", align 1

; Function Attrs: nofree nounwind sspstrong uwtable
define dso_local i32 @main() local_unnamed_addr #0 {
  %1 = alloca i32, align 4
  %2 = alloca [100 x i32], align 16
  %3 = alloca [100 x i32], align 16
  %4 = bitcast i32* %1 to i8*
  call void @llvm.lifetime.start.p0i8(i64 4, i8* nonnull %4) #4
  %5 = bitcast [100 x i32]* %2 to i8*
  call void @llvm.lifetime.start.p0i8(i64 400, i8* nonnull %5) #4
  %6 = bitcast [100 x i32]* %3 to i8*
  call void @llvm.lifetime.start.p0i8(i64 400, i8* nonnull %6) #4
  %7 = call i32 (i8*, ...) @__isoc99_scanf(i8* getelementptr inbounds ([4 x i8], [4 x i8]* @.str, i64 0, i64 0), i32* nonnull %1)
  %8 = load i32, i32* %1, align 4, !tbaa !5
  %9 = icmp sgt i32 %8, 0
  br i1 %9, label %16, label %95

10:                                               ; preds = %16
  %11 = icmp sgt i32 %21, 1
  br i1 %11, label %12, label %95

12:                                               ; preds = %10
  %13 = add nsw i32 %21, -1
  %14 = zext i32 %13 to i64
  %15 = zext i32 %21 to i64
  br label %24

16:                                               ; preds = %0, %16
  %17 = phi i64 [ %20, %16 ], [ 0, %0 ]
  %18 = getelementptr inbounds [100 x i32], [100 x i32]* %2, i64 0, i64 %17
  %19 = call i32 (i8*, ...) @__isoc99_scanf(i8* getelementptr inbounds ([3 x i8], [3 x i8]* @.str.1, i64 0, i64 0), i32* nonnull %18)
  %20 = add nuw nsw i64 %17, 1
  %21 = load i32, i32* %1, align 4, !tbaa !5
  %22 = sext i32 %21 to i64
  %23 = icmp slt i64 %20, %22
  br i1 %23, label %16, label %10, !llvm.loop !9

24:                                               ; preds = %90, %12
  %25 = phi i64 [ %94, %90 ], [ 0, %12 ]
  %26 = phi i64 [ %32, %90 ], [ %15, %12 ]
  %27 = phi i32 [ %92, %90 ], [ 0, %12 ]
  %28 = phi i32 [ %91, %90 ], [ 0, %12 ]
  %29 = sub i64 %14, %25
  %30 = xor i64 %25, -1
  %31 = add i64 %30, %14
  %32 = add nsw i64 %26, -1
  %33 = getelementptr inbounds [100 x i32], [100 x i32]* %2, i64 0, i64 %32
  %34 = load i32, i32* %33, align 4, !tbaa !5
  %35 = and i64 %29, 3
  %36 = icmp ult i64 %31, 3
  br i1 %36, label %65, label %37

37:                                               ; preds = %24
  %38 = and i64 %29, -4
  br label %39

39:                                               ; preds = %39, %37
  %40 = phi i64 [ 0, %37 ], [ %62, %39 ]
  %41 = phi i32 [ 0, %37 ], [ %61, %39 ]
  %42 = phi i64 [ %38, %37 ], [ %63, %39 ]
  %43 = getelementptr inbounds [100 x i32], [100 x i32]* %2, i64 0, i64 %40
  %44 = load i32, i32* %43, align 16, !tbaa !5
  %45 = icmp eq i32 %34, %44
  %46 = or i64 %40, 1
  %47 = getelementptr inbounds [100 x i32], [100 x i32]* %2, i64 0, i64 %46
  %48 = load i32, i32* %47, align 4, !tbaa !5
  %49 = icmp eq i32 %34, %48
  %50 = or i64 %40, 2
  %51 = getelementptr inbounds [100 x i32], [100 x i32]* %2, i64 0, i64 %50
  %52 = load i32, i32* %51, align 8, !tbaa !5
  %53 = icmp eq i32 %34, %52
  %54 = or i64 %40, 3
  %55 = getelementptr inbounds [100 x i32], [100 x i32]* %2, i64 0, i64 %54
  %56 = load i32, i32* %55, align 4, !tbaa !5
  %57 = icmp eq i32 %34, %56
  %58 = select i1 %57, i1 true, i1 %53
  %59 = select i1 %58, i1 true, i1 %49
  %60 = select i1 %59, i1 true, i1 %45
  %61 = select i1 %60, i32 1, i32 %41
  %62 = add nuw nsw i64 %40, 4
  %63 = add i64 %42, -4
  %64 = icmp eq i64 %63, 0
  br i1 %64, label %65, label %39, !llvm.loop !11

65:                                               ; preds = %39, %24
  %66 = phi i32 [ undef, %24 ], [ %61, %39 ]
  %67 = phi i64 [ 0, %24 ], [ %62, %39 ]
  %68 = phi i32 [ 0, %24 ], [ %61, %39 ]
  %69 = icmp eq i64 %35, 0
  br i1 %69, label %81, label %70

70:                                               ; preds = %65, %70
  %71 = phi i64 [ %78, %70 ], [ %67, %65 ]
  %72 = phi i32 [ %77, %70 ], [ %68, %65 ]
  %73 = phi i64 [ %79, %70 ], [ %35, %65 ]
  %74 = getelementptr inbounds [100 x i32], [100 x i32]* %2, i64 0, i64 %71
  %75 = load i32, i32* %74, align 4, !tbaa !5
  %76 = icmp eq i32 %34, %75
  %77 = select i1 %76, i32 1, i32 %72
  %78 = add nuw nsw i64 %71, 1
  %79 = add i64 %73, -1
  %80 = icmp eq i64 %79, 0
  br i1 %80, label %81, label %70, !llvm.loop !12

81:                                               ; preds = %70, %65
  %82 = phi i32 [ %66, %65 ], [ %77, %70 ]
  %83 = icmp eq i32 %82, 0
  br i1 %83, label %84, label %90

84:                                               ; preds = %81
  %85 = getelementptr inbounds [100 x i32], [100 x i32]* %2, i64 0, i64 %32
  %86 = load i32, i32* %85, align 4, !tbaa !5
  %87 = sext i32 %28 to i64
  %88 = getelementptr inbounds [100 x i32], [100 x i32]* %3, i64 0, i64 %87
  store i32 %86, i32* %88, align 4, !tbaa !5
  %89 = add nsw i32 %28, 1
  br label %90

90:                                               ; preds = %81, %84
  %91 = phi i32 [ %89, %84 ], [ %28, %81 ]
  %92 = phi i32 [ %89, %84 ], [ %27, %81 ]
  %93 = icmp sgt i64 %26, 2
  %94 = add i64 %25, 1
  br i1 %93, label %24, label %95, !llvm.loop !14

95:                                               ; preds = %90, %0, %10
  %96 = phi i32 [ 0, %10 ], [ 0, %0 ], [ %92, %90 ]
  %97 = getelementptr inbounds [100 x i32], [100 x i32]* %2, i64 0, i64 0
  %98 = load i32, i32* %97, align 16, !tbaa !5
  %99 = call i32 (i8*, ...) @printf(i8* nonnull dereferenceable(1) getelementptr inbounds ([3 x i8], [3 x i8]* @.str.1, i64 0, i64 0), i32 %98)
  %100 = icmp sgt i32 %96, 0
  br i1 %100, label %101, label %113

101:                                              ; preds = %95
  %102 = zext i32 %96 to i64
  br label %103

103:                                              ; preds = %101, %103
  %104 = phi i64 [ %102, %101 ], [ %112, %103 ]
  %105 = phi i32 [ %96, %101 ], [ %106, %103 ]
  %106 = add nsw i32 %105, -1
  %107 = zext i32 %106 to i64
  %108 = getelementptr inbounds [100 x i32], [100 x i32]* %3, i64 0, i64 %107
  %109 = load i32, i32* %108, align 4, !tbaa !5
  %110 = call i32 (i8*, ...) @printf(i8* nonnull dereferenceable(1) getelementptr inbounds ([4 x i8], [4 x i8]* @.str.2, i64 0, i64 0), i32 %109)
  %111 = icmp sgt i64 %104, 1
  %112 = add nsw i64 %104, -1
  br i1 %111, label %103, label %113, !llvm.loop !15

113:                                              ; preds = %103, %95
  %114 = call i32 @putchar(i32 10)
  call void @llvm.lifetime.end.p0i8(i64 400, i8* nonnull %6) #4
  call void @llvm.lifetime.end.p0i8(i64 400, i8* nonnull %5) #4
  call void @llvm.lifetime.end.p0i8(i64 4, i8* nonnull %4) #4
  ret i32 0
}

; Function Attrs: argmemonly mustprogress nofree nosync nounwind willreturn
declare void @llvm.lifetime.start.p0i8(i64 immarg, i8* nocapture) #1

; Function Attrs: nofree nounwind
declare noundef i32 @__isoc99_scanf(i8* nocapture noundef readonly, ...) local_unnamed_addr #2

; Function Attrs: nofree nounwind
declare noundef i32 @printf(i8* nocapture noundef readonly, ...) local_unnamed_addr #2

; Function Attrs: argmemonly mustprogress nofree nosync nounwind willreturn
declare void @llvm.lifetime.end.p0i8(i64 immarg, i8* nocapture) #1

; Function Attrs: nofree nounwind
declare noundef i32 @putchar(i32 noundef) local_unnamed_addr #3


!llvm.module.flags = !{!0, !1, !2, !3}
!llvm.ident = !{!4}

!0 = !{i32 1, !"wchar_size", i32 4}
!1 = !{i32 7, !"PIC Level", i32 2}
!2 = !{i32 7, !"PIE Level", i32 2}
!3 = !{i32 7, !"uwtable", i32 1}
!4 = !{!"clang version 13.0.0"}
!5 = !{!6, !6, i64 0}
!6 = !{!"int", !7, i64 0}
!7 = !{!"omnipotent char", !8, i64 0}
!8 = !{!"Simple C/C++ TBAA"}
!9 = distinct !{!9, !10}
!10 = !{!"llvm.loop.mustprogress"}
!11 = distinct !{!11, !10}
!12 = distinct !{!12, !13}
!13 = !{!"llvm.loop.unroll.disable"}
!14 = distinct !{!14, !10}
!15 = distinct !{!15, !10}
